target datalayout = "e-m:e-p270:32:32-p271:32:32-p272:64:64-i64:64-i128:128-f80:128-n8:16:32:64-S128"
target triple = "x86_64-pc-linux-gnu"

%struct.Nwk_Man_t_ = type { ptr, ptr, ptr, ptr, ptr, [5 x i32], i32, ptr, ptr, ptr, ptr, ptr, i32, i32, i32, i32, i32 }
%struct.Aig_Man_t_ = type { ptr, ptr, ptr, ptr, ptr, ptr, ptr, %struct.Aig_Obj_t_, i32, i32, i32, i32, i32, i32, [7 x i32], i32, ptr, i32, ptr, i32, ptr, i32, i32, i32, ptr, i32, i32, i32, i32, i32, ptr, ptr, i32, ptr, ptr, i32, ptr, ptr, i32, i32, i32, ptr, ptr, ptr, ptr, ptr, ptr, ptr, ptr, ptr, ptr, ptr, ptr, ptr, ptr, i32, ptr, ptr, ptr, ptr, i32, i64, i64, i64, ptr, ptr }
%struct.Aig_Obj_t_ = type { %union.anon, ptr, ptr, i64, i32, i32, %union.anon.0 }
%union.anon = type { ptr }
%union.anon.0 = type { ptr }
%struct.Vec_Ptr_t_ = type { i32, i32, ptr }

; Function Attrs: inlinehint nounwind uwtable
define internal ptr @Aig_Regular(ptr noundef %0) #3 {
  %2 = alloca ptr, align 8
  store ptr %0, ptr %2, align 8, !tbaa !34
  %3 = load ptr, ptr %2, align 8, !tbaa !34
  %4 = ptrtoint ptr %3 to i64
  %5 = and i64 %4, -2
  %6 = inttoptr i64 %5 to ptr
  ret ptr %6
}

; Function Attrs: inlinehint nounwind uwtable
define internal ptr @Aig_ObjFanin1(ptr noundef %0) #3 {
  %2 = alloca ptr, align 8
  store ptr %0, ptr %2, align 8, !tbaa !34
  %3 = load ptr, ptr %2, align 8, !tbaa !34
  %4 = getelementptr inbounds nuw %struct.Aig_Obj_t_, ptr %3, i32 0, i32 2
  %5 = load ptr, ptr %4, align 8, !tbaa !52
  %6 = call ptr @Aig_Regular(ptr noundef %5)
  ret ptr %6
}

; Function Attrs: inlinehint nounwind uwtable
define internal ptr @Aig_ObjFanin0(ptr noundef %0) #3 {
  %2 = alloca ptr, align 8
  store ptr %0, ptr %2, align 8, !tbaa !34
  %3 = load ptr, ptr %2, align 8, !tbaa !34
  %4 = getelementptr inbounds nuw %struct.Aig_Obj_t_, ptr %3, i32 0, i32 1
  %5 = load ptr, ptr %4, align 8, !tbaa !51
  %6 = call ptr @Aig_Regular(ptr noundef %5)
  ret ptr %6
}

; Function Attrs: inlinehint nounwind uwtable
define internal i32 @Aig_ObjIsNode(ptr noundef %0) #3 {
  %2 = alloca ptr, align 8
  store ptr %0, ptr %2, align 8, !tbaa !34
  %3 = load ptr, ptr %2, align 8, !tbaa !34
  %4 = getelementptr inbounds nuw %struct.Aig_Obj_t_, ptr %3, i32 0, i32 3
  %5 = load i64, ptr %4, align 8
  %6 = and i64 %5, 7
  %7 = trunc i64 %6 to i32
  %8 = icmp eq i32 %7, 5
  br i1 %8, label %16, label %9

9:                                                ; preds = %1
  %10 = load ptr, ptr %2, align 8, !tbaa !34
  %11 = getelementptr inbounds nuw %struct.Aig_Obj_t_, ptr %10, i32 0, i32 3
  %12 = load i64, ptr %11, align 8
  %13 = and i64 %12, 7
  %14 = trunc i64 %13 to i32
  %15 = icmp eq i32 %14, 6
  br label %16

16:                                               ; preds = %9, %1
  %17 = phi i1 [ true, %1 ], [ %15, %9 ]
  %18 = zext i1 %17 to i32
  ret i32 %18
}

; Function Attrs: inlinehint nounwind uwtable
define internal ptr @Vec_PtrEntry(ptr noundef %0, i32 noundef %1) #3 {
  %3 = alloca ptr, align 8
  %4 = alloca i32, align 4
  store ptr %0, ptr %3, align 8, !tbaa !46
  store i32 %1, ptr %4, align 4, !tbaa !36
  %5 = load ptr, ptr %3, align 8, !tbaa !46
  %6 = getelementptr inbounds nuw %struct.Vec_Ptr_t_, ptr %5, i32 0, i32 2
  %7 = load ptr, ptr %6, align 8, !tbaa !49
  %8 = load i32, ptr %4, align 4, !tbaa !36
  %9 = sext i32 %8 to i64
  %10 = getelementptr inbounds ptr, ptr %7, i64 %9
  %11 = load ptr, ptr %10, align 8, !tbaa !50
  ret ptr %11
}

; Function Attrs: inlinehint nounwind uwtable
define internal i32 @Vec_PtrSize(ptr noundef %0) #3 {
  %2 = alloca ptr, align 8
  store ptr %0, ptr %2, align 8, !tbaa !46
  %3 = load ptr, ptr %2, align 8, !tbaa !46
  %4 = getelementptr inbounds nuw %struct.Vec_Ptr_t_, ptr %3, i32 0, i32 1
  %5 = load i32, ptr %4, align 4, !tbaa !47
  ret i32 %5
}

; Function Attrs: inlinehint nounwind uwtable
define internal ptr @Aig_ManConst1(ptr noundef %0) #3 {
  %2 = alloca ptr, align 8
  store ptr %0, ptr %2, align 8, !tbaa !3
  %3 = load ptr, ptr %2, align 8, !tbaa !3
  %4 = getelementptr inbounds nuw %struct.Aig_Man_t_, ptr %3, i32 0, i32 6
  %5 = load ptr, ptr %4, align 8, !tbaa !45
  ret ptr %5
}

; Function Attrs: inlinehint nounwind uwtable
define internal ptr @Abc_UtilStrsav(ptr noundef %0) #3 {
  %2 = alloca ptr, align 8
  store ptr %0, ptr %2, align 8, !tbaa !44
  %3 = load ptr, ptr %2, align 8, !tbaa !44
  %4 = icmp ne ptr %3, null
  br i1 %4, label %5, label %13

5:                                                ; preds = %1
  %6 = load ptr, ptr %2, align 8, !tbaa !44
  %7 = call i64 @strlen(ptr noundef %6) #9
  %8 = add i64 %7, 1
  %9 = mul i64 1, %8
  %10 = call noalias ptr @malloc(i64 noundef %9) #10
  %11 = load ptr, ptr %2, align 8, !tbaa !44
  %12 = call ptr @strcpy(ptr noundef %10, ptr noundef %11) #8
  br label %14

13:                                               ; preds = %1
  br label %14

14:                                               ; preds = %13, %5
  %15 = phi ptr [ %12, %5 ], [ null, %13 ]
  ret ptr %15
}

; Function Attrs: nounwind uwtable
define ptr @Nwk_ManDeriveFromAig(ptr noundef %0) #0 {
  %2 = alloca ptr, align 8
  %3 = alloca ptr, align 8
  %4 = alloca ptr, align 8
  %5 = alloca i32, align 4
  store ptr %0, ptr %2, align 8, !tbaa !3
  call void @llvm.lifetime.start.p0(i64 8, ptr %3) #8
  call void @llvm.lifetime.start.p0(i64 8, ptr %4) #8
  call void @llvm.lifetime.start.p0(i64 4, ptr %5) #8
  %6 = call ptr (...) @Nwk_ManAlloc()
  store ptr %6, ptr %3, align 8, !tbaa !8
  %7 = load ptr, ptr %3, align 8, !tbaa !8
  %8 = getelementptr inbounds nuw %struct.Nwk_Man_t_, ptr %7, i32 0, i32 6
  store i32 0, ptr %8, align 4, !tbaa !10
  %9 = load ptr, ptr %3, align 8, !tbaa !8
  %10 = getelementptr inbounds nuw %struct.Nwk_Man_t_, ptr %9, i32 0, i32 7
  %11 = load ptr, ptr %10, align 8, !tbaa !19
  call void @Hop_ManStop(ptr noundef %11)
  %12 = load ptr, ptr %3, align 8, !tbaa !8
  %13 = getelementptr inbounds nuw %struct.Nwk_Man_t_, ptr %12, i32 0, i32 7
  store ptr null, ptr %13, align 8, !tbaa !19
  %14 = load ptr, ptr %2, align 8, !tbaa !3
  %15 = getelementptr inbounds nuw %struct.Aig_Man_t_, ptr %14, i32 0, i32 0
  %16 = load ptr, ptr %15, align 8, !tbaa !20
  %17 = call ptr @Abc_UtilStrsav(ptr noundef %16)
  %18 = load ptr, ptr %3, align 8, !tbaa !8
  %19 = getelementptr inbounds nuw %struct.Nwk_Man_t_, ptr %18, i32 0, i32 0
  store ptr %17, ptr %19, align 8, !tbaa !31
  %20 = load ptr, ptr %2, align 8, !tbaa !3
  %21 = getelementptr inbounds nuw %struct.Aig_Man_t_, ptr %20, i32 0, i32 1
  %22 = load ptr, ptr %21, align 8, !tbaa !32
  %23 = call ptr @Abc_UtilStrsav(ptr noundef %22)
  %24 = load ptr, ptr %3, align 8, !tbaa !8
  %25 = getelementptr inbounds nuw %struct.Nwk_Man_t_, ptr %24, i32 0, i32 1
  store ptr %23, ptr %25, align 8, !tbaa !33
  %26 = load ptr, ptr %2, align 8, !tbaa !3
  %27 = call ptr @Aig_ManConst1(ptr noundef %26)
  store ptr %27, ptr %4, align 8, !tbaa !34
  %28 = load ptr, ptr %3, align 8, !tbaa !8
  %29 = load ptr, ptr %4, align 8, !tbaa !34
  %30 = getelementptr inbounds nuw %struct.Aig_Obj_t_, ptr %29, i32 0, i32 3
  %31 = load i64, ptr %30, align 8
  %32 = lshr i64 %31, 6
  %33 = and i64 %32, 67108863
  %34 = trunc i64 %33 to i32
  %35 = call ptr @Nwk_ManCreateNode(ptr noundef %28, i32 noundef 0, i32 noundef %34)
  %36 = load ptr, ptr %4, align 8, !tbaa !34
  %37 = getelementptr inbounds nuw %struct.Aig_Obj_t_, ptr %36, i32 0, i32 6
  store ptr %35, ptr %37, align 8, !tbaa !35
  store i32 0, ptr %5, align 4, !tbaa !36
  br label %38

38:                                               ; preds = %64, %1
  %39 = load i32, ptr %5, align 4, !tbaa !36
  %40 = load ptr, ptr %2, align 8, !tbaa !3
  %41 = getelementptr inbounds nuw %struct.Aig_Man_t_, ptr %40, i32 0, i32 2
  %42 = load ptr, ptr %41, align 8, !tbaa !37
  %43 = call i32 @Vec_PtrSize(ptr noundef %42)
  %44 = icmp slt i32 %39, %43
  br i1 %44, label %45, label %51

45:                                               ; preds = %38
  %46 = load ptr, ptr %2, align 8, !tbaa !3
  %47 = getelementptr inbounds nuw %struct.Aig_Man_t_, ptr %46, i32 0, i32 2
  %48 = load ptr, ptr %47, align 8, !tbaa !37
  %49 = load i32, ptr %5, align 4, !tbaa !36
  %50 = call ptr @Vec_PtrEntry(ptr noundef %48, i32 noundef %49)
  store ptr %50, ptr %4, align 8, !tbaa !34
  br label %51

51:                                               ; preds = %45, %38
  %52 = phi i1 [ false, %38 ], [ true, %45 ]
  br i1 %52, label %53, label %67

53:                                               ; preds = %51
  %54 = load ptr, ptr %3, align 8, !tbaa !8
  %55 = load ptr, ptr %4, align 8, !tbaa !34
  %56 = getelementptr inbounds nuw %struct.Aig_Obj_t_, ptr %55, i32 0, i32 3
  %57 = load i64, ptr %56, align 8
  %58 = lshr i64 %57, 6
  %59 = and i64 %58, 67108863
  %60 = trunc i64 %59 to i32
  %61 = call ptr @Nwk_ManCreateCi(ptr noundef %54, i32 noundef %60)
  %62 = load ptr, ptr %4, align 8, !tbaa !34
  %63 = getelementptr inbounds nuw %struct.Aig_Obj_t_, ptr %62, i32 0, i32 6
  store ptr %61, ptr %63, align 8, !tbaa !35
  br label %64

64:                                               ; preds = %53
  %65 = load i32, ptr %5, align 4, !tbaa !36
  %66 = add nsw i32 %65, 1
  store i32 %66, ptr %5, align 4, !tbaa !36
  br label %38, !llvm.loop !38

67:                                               ; preds = %51
  store i32 0, ptr %5, align 4, !tbaa !36
  br label %68

68:                                               ; preds = %117, %67
  %69 = load i32, ptr %5, align 4, !tbaa !36
  %70 = load ptr, ptr %2, align 8, !tbaa !3
  %71 = getelementptr inbounds nuw %struct.Aig_Man_t_, ptr %70, i32 0, i32 4
  %72 = load ptr, ptr %71, align 8, !tbaa !40
  %73 = call i32 @Vec_PtrSize(ptr noundef %72)
  %74 = icmp slt i32 %69, %73
  br i1 %74, label %75, label %81

75:                                               ; preds = %68
  %76 = load ptr, ptr %2, align 8, !tbaa !3
  %77 = getelementptr inbounds nuw %struct.Aig_Man_t_, ptr %76, i32 0, i32 4
  %78 = load ptr, ptr %77, align 8, !tbaa !40
  %79 = load i32, ptr %5, align 4, !tbaa !36
  %80 = call ptr @Vec_PtrEntry(ptr noundef %78, i32 noundef %79)
  store ptr %80, ptr %4, align 8, !tbaa !34
  br label %81

81:                                               ; preds = %75, %68
  %82 = phi i1 [ false, %68 ], [ true, %75 ]
  br i1 %82, label %83, label %120

83:                                               ; preds = %81
  %84 = load ptr, ptr %4, align 8, !tbaa !34
  %85 = icmp eq ptr %84, null
  br i1 %85, label %90, label %86

86:                                               ; preds = %83
  %87 = load ptr, ptr %4, align 8, !tbaa !34
  %88 = call i32 @Aig_ObjIsNode(ptr noundef %87)
  %89 = icmp ne i32 %88, 0
  br i1 %89, label %91, label %90

90:                                               ; preds = %86, %83
  br label %116

91:                                               ; preds = %86
  %92 = load ptr, ptr %3, align 8, !tbaa !8
  %93 = load ptr, ptr %4, align 8, !tbaa !34
  %94 = getelementptr inbounds nuw %struct.Aig_Obj_t_, ptr %93, i32 0, i32 3
  %95 = load i64, ptr %94, align 8
  %96 = lshr i64 %95, 6
  %97 = and i64 %96, 67108863
  %98 = trunc i64 %97 to i32
  %99 = call ptr @Nwk_ManCreateNode(ptr noundef %92, i32 noundef 2, i32 noundef %98)
  %100 = load ptr, ptr %4, align 8, !tbaa !34
  %101 = getelementptr inbounds nuw %struct.Aig_Obj_t_, ptr %100, i32 0, i32 6
  store ptr %99, ptr %101, align 8, !tbaa !35
  %102 = load ptr, ptr %4, align 8, !tbaa !34
  %103 = getelementptr inbounds nuw %struct.Aig_Obj_t_, ptr %102, i32 0, i32 6
  %104 = load ptr, ptr %103, align 8, !tbaa !35
  %105 = load ptr, ptr %4, align 8, !tbaa !34
  %106 = call ptr @Aig_ObjFanin0(ptr noundef %105)
  %107 = getelementptr inbounds nuw %struct.Aig_Obj_t_, ptr %106, i32 0, i32 6
  %108 = load ptr, ptr %107, align 8, !tbaa !35
  call void @Nwk_ObjAddFanin(ptr noundef %104, ptr noundef %108)
  %109 = load ptr, ptr %4, align 8, !tbaa !34
  %110 = getelementptr inbounds nuw %struct.Aig_Obj_t_, ptr %109, i32 0, i32 6
  %111 = load ptr, ptr %110, align 8, !tbaa !35
  %112 = load ptr, ptr %4, align 8, !tbaa !34
  %113 = call ptr @Aig_ObjFanin1(ptr noundef %112)
  %114 = getelementptr inbounds nuw %struct.Aig_Obj_t_, ptr %113, i32 0, i32 6
  %115 = load ptr, ptr %114, align 8, !tbaa !35
  call void @Nwk_ObjAddFanin(ptr noundef %111, ptr noundef %115)
  br label %116

116:                                              ; preds = %91, %90
  br label %117

117:                                              ; preds = %116
  %118 = load i32, ptr %5, align 4, !tbaa !36
  %119 = add nsw i32 %118, 1
  store i32 %119, ptr %5, align 4, !tbaa !36
  br label %68, !llvm.loop !41

120:                                              ; preds = %81
  store i32 0, ptr %5, align 4, !tbaa !36
  br label %121

121:                                              ; preds = %148, %120
  %122 = load i32, ptr %5, align 4, !tbaa !36
  %123 = load ptr, ptr %2, align 8, !tbaa !3
  %124 = getelementptr inbounds nuw %struct.Aig_Man_t_, ptr %123, i32 0, i32 3
  %125 = load ptr, ptr %124, align 8, !tbaa !42
  %126 = call i32 @Vec_PtrSize(ptr noundef %125)
  %127 = icmp slt i32 %122, %126
  br i1 %127, label %128, label %134

128:                                              ; preds = %121
  %129 = load ptr, ptr %2, align 8, !tbaa !3
  %130 = getelementptr inbounds nuw %struct.Aig_Man_t_, ptr %129, i32 0, i32 3
  %131 = load ptr, ptr %130, align 8, !tbaa !42
  %132 = load i32, ptr %5, align 4, !tbaa !36
  %133 = call ptr @Vec_PtrEntry(ptr noundef %131, i32 noundef %132)
  store ptr %133, ptr %4, align 8, !tbaa !34
  br label %134

134:                                              ; preds = %128, %121
  %135 = phi i1 [ false, %121 ], [ true, %128 ]
  br i1 %135, label %136, label %151

136:                                              ; preds = %134
  %137 = load ptr, ptr %3, align 8, !tbaa !8
  %138 = call ptr @Nwk_ManCreateCo(ptr noundef %137)
  %139 = load ptr, ptr %4, align 8, !tbaa !34
  %140 = getelementptr inbounds nuw %struct.Aig_Obj_t_, ptr %139, i32 0, i32 6
  store ptr %138, ptr %140, align 8, !tbaa !35
  %141 = load ptr, ptr %4, align 8, !tbaa !34
  %142 = getelementptr inbounds nuw %struct.Aig_Obj_t_, ptr %141, i32 0, i32 6
  %143 = load ptr, ptr %142, align 8, !tbaa !35
  %144 = load ptr, ptr %4, align 8, !tbaa !34
  %145 = call ptr @Aig_ObjFanin0(ptr noundef %144)
  %146 = getelementptr inbounds nuw %struct.Aig_Obj_t_, ptr %145, i32 0, i32 6
  %147 = load ptr, ptr %146, align 8, !tbaa !35
  call void @Nwk_ObjAddFanin(ptr noundef %143, ptr noundef %147)
  br label %148

148:                                              ; preds = %136
  %149 = load i32, ptr %5, align 4, !tbaa !36
  %150 = add nsw i32 %149, 1
  store i32 %150, ptr %5, align 4, !tbaa !36
  br label %121, !llvm.loop !43

151:                                              ; preds = %134
  %152 = load ptr, ptr %3, align 8, !tbaa !8
  call void @llvm.lifetime.end.p0(i64 4, ptr %5) #8
  call void @llvm.lifetime.end.p0(i64 8, ptr %4) #8
  call void @llvm.lifetime.end.p0(i64 8, ptr %3) #8
  ret ptr %152
}