; Function Attrs: nounwind uwtable
define ptr @Nwk_ManDeriveFromAig(ptr noundef readonly captures(none) %0) local_unnamed_addr #0 {
  %2 = tail call ptr (...) @Nwk_ManAlloc() #12
  %3 = getelementptr inbounds nuw i8, ptr %2, i64 60
  store i32 0, ptr %3, align 4, !tbaa !3
  %4 = getelementptr inbounds nuw i8, ptr %2, i64 64
  %5 = load ptr, ptr %4, align 8, !tbaa !15
  tail call void @Hop_ManStop(ptr noundef %5) #12
  store ptr null, ptr %4, align 8, !tbaa !15
  %6 = load ptr, ptr %0, align 8, !tbaa !16
  %.not.i = icmp eq ptr %6, null
  br i1 %.not.i, label %Abc_UtilStrsav.exit, label %7

7:                                                ; preds = %1
  %8 = tail call i64 @strlen(ptr noundef nonnull readonly dereferenceable(1) %6) #13
  %9 = add i64 %8, 1
  %10 = tail call noalias ptr @malloc(i64 noundef %9) #14
  %11 = tail call ptr @strcpy(ptr noundef nonnull dereferenceable(1) %10, ptr noundef nonnull readonly dereferenceable(1) %6) #12
  br label %Abc_UtilStrsav.exit

Abc_UtilStrsav.exit:                              ; preds = %1, %7
  %12 = phi ptr [ %10, %7 ], [ null, %1 ]
  store ptr %12, ptr %2, align 8, !tbaa !28
  %13 = getelementptr inbounds nuw i8, ptr %0, i64 8
  %14 = load ptr, ptr %13, align 8, !tbaa !29
  %.not.i57 = icmp eq ptr %14, null
  br i1 %.not.i57, label %Abc_UtilStrsav.exit58, label %15

15:                                               ; preds = %Abc_UtilStrsav.exit
  %16 = tail call i64 @strlen(ptr noundef nonnull readonly dereferenceable(1) %14) #13
  %17 = add i64 %16, 1
  %18 = tail call noalias ptr @malloc(i64 noundef %17) #14
  %19 = tail call ptr @strcpy(ptr noundef nonnull dereferenceable(1) %18, ptr noundef nonnull readonly dereferenceable(1) %14) #12
  br label %Abc_UtilStrsav.exit58

Abc_UtilStrsav.exit58:                            ; preds = %Abc_UtilStrsav.exit, %15
  %20 = phi ptr [ %18, %15 ], [ null, %Abc_UtilStrsav.exit ]
  %21 = getelementptr inbounds nuw i8, ptr %2, i64 8
  store ptr %20, ptr %21, align 8, !tbaa !30
  %22 = getelementptr i8, ptr %0, i64 48
  %.val = load ptr, ptr %22, align 8, !tbaa !31
  %23 = getelementptr inbounds nuw i8, ptr %.val, i64 24
  %24 = load i64, ptr %23, align 8
  %25 = trunc i64 %24 to i32
  %26 = lshr i32 %25, 6
  %27 = tail call ptr @Nwk_ManCreateNode(ptr noundef nonnull %2, i32 noundef 0, i32 noundef %26) #12
  %28 = getelementptr inbounds nuw i8, ptr %.val, i64 40
  store ptr %27, ptr %28, align 8, !tbaa !32
  %29 = getelementptr inbounds nuw i8, ptr %0, i64 16
  %30 = load ptr, ptr %29, align 8, !tbaa !33
  %31 = getelementptr i8, ptr %30, i64 4
  %.val4759 = load i32, ptr %31, align 4, !tbaa !34
  %32 = icmp sgt i32 %.val4759, 0
  br i1 %32, label %.lr.ph, label %.critedge.preheader

.critedge.preheader:                              ; preds = %.lr.ph, %Abc_UtilStrsav.exit58
  %33 = getelementptr inbounds nuw i8, ptr %0, i64 32
  %34 = load ptr, ptr %33, align 8, !tbaa !36
  %35 = getelementptr i8, ptr %34, i64 4
  %.val4861 = load i32, ptr %35, align 4, !tbaa !34
  %36 = icmp sgt i32 %.val4861, 0
  br i1 %36, label %.lr.ph63, label %.critedge2.preheader

.lr.ph:                                           ; preds = %Abc_UtilStrsav.exit58, %.lr.ph
  %indvars.iv = phi i64 [ %indvars.iv.next, %.lr.ph ], [ 0, %Abc_UtilStrsav.exit58 ]
  %37 = phi ptr [ %47, %.lr.ph ], [ %30, %Abc_UtilStrsav.exit58 ]
  %38 = getelementptr i8, ptr %37, i64 8
  %.val50 = load ptr, ptr %38, align 8, !tbaa !37
  %39 = getelementptr inbounds nuw ptr, ptr %.val50, i64 %indvars.iv
  %40 = load ptr, ptr %39, align 8, !tbaa !38
  %41 = getelementptr inbounds nuw i8, ptr %40, i64 24
  %42 = load i64, ptr %41, align 8
  %43 = trunc i64 %42 to i32
  %44 = lshr i32 %43, 6
  %45 = tail call ptr @Nwk_ManCreateCi(ptr noundef nonnull %2, i32 noundef %44) #12
  %46 = getelementptr inbounds nuw i8, ptr %40, i64 40
  store ptr %45, ptr %46, align 8, !tbaa !32
  %indvars.iv.next = add nuw nsw i64 %indvars.iv, 1
  %47 = load ptr, ptr %29, align 8, !tbaa !33
  %48 = getelementptr i8, ptr %47, i64 4
  %.val47 = load i32, ptr %48, align 4, !tbaa !34
  %49 = sext i32 %.val47 to i64
  %50 = icmp slt i64 %indvars.iv.next, %49
  br i1 %50, label %.lr.ph, label %.critedge.preheader, !llvm.loop !39

.critedge2.preheader:                             ; preds = %.critedge, %.critedge.preheader
  %51 = getelementptr inbounds nuw i8, ptr %0, i64 24
  %52 = load ptr, ptr %51, align 8, !tbaa !41
  %53 = getelementptr i8, ptr %52, i64 4
  %.val4964 = load i32, ptr %53, align 4, !tbaa !34
  %54 = icmp sgt i32 %.val4964, 0
  br i1 %54, label %.critedge2, label %.critedge4

.lr.ph63:                                         ; preds = %.critedge.preheader, %.critedge
  %55 = phi ptr [ %82, %.critedge ], [ %34, %.critedge.preheader ]
  %indvars.iv69 = phi i64 [ %indvars.iv.next70, %.critedge ], [ 0, %.critedge.preheader ]
  %56 = getelementptr i8, ptr %55, i64 8
  %.val51 = load ptr, ptr %56, align 8, !tbaa !37
  %57 = getelementptr inbounds nuw ptr, ptr %.val51, i64 %indvars.iv69
  %58 = load ptr, ptr %57, align 8, !tbaa !38
  %59 = icmp eq ptr %58, null
  br i1 %59, label %.critedge, label %60

60:                                               ; preds = %.lr.ph63
  %61 = getelementptr i8, ptr %58, i64 24
  %.val53 = load i64, ptr %61, align 8
  %62 = trunc i64 %.val53 to i32
  %63 = and i32 %62, 7
  %64 = add nsw i32 %63, -7
  %narrow.i = icmp ult i32 %64, -2
  br i1 %narrow.i, label %.critedge, label %65

65:                                               ; preds = %60
  %66 = lshr i32 %62, 6
  %67 = tail call ptr @Nwk_ManCreateNode(ptr noundef nonnull %2, i32 noundef 2, i32 noundef %66) #12
  %68 = getelementptr inbounds nuw i8, ptr %58, i64 40
  store ptr %67, ptr %68, align 8, !tbaa !32
  %69 = getelementptr i8, ptr %58, i64 8
  %.val54 = load ptr, ptr %69, align 8, !tbaa !42
  %70 = ptrtoint ptr %.val54 to i64
  %71 = and i64 %70, -2
  %72 = inttoptr i64 %71 to ptr
  %73 = getelementptr inbounds nuw i8, ptr %72, i64 40
  %74 = load ptr, ptr %73, align 8, !tbaa !32
  tail call void @Nwk_ObjAddFanin(ptr noundef %67, ptr noundef %74) #12
  %75 = load ptr, ptr %68, align 8, !tbaa !32
  %76 = getelementptr i8, ptr %58, i64 16
  %.val56 = load ptr, ptr %76, align 8, !tbaa !43
  %77 = ptrtoint ptr %.val56 to i64
  %78 = and i64 %77, -2
  %79 = inttoptr i64 %78 to ptr
  %80 = getelementptr inbounds nuw i8, ptr %79, i64 40
  %81 = load ptr, ptr %80, align 8, !tbaa !32
  tail call void @Nwk_ObjAddFanin(ptr noundef %75, ptr noundef %81) #12
  %.pre = load ptr, ptr %33, align 8, !tbaa !36
  br label %.critedge

.critedge:                                        ; preds = %65, %60, %.lr.ph63
  %82 = phi ptr [ %.pre, %65 ], [ %55, %60 ], [ %55, %.lr.ph63 ]
  %indvars.iv.next70 = add nuw nsw i64 %indvars.iv69, 1
  %83 = getelementptr i8, ptr %82, i64 4
  %.val48 = load i32, ptr %83, align 4, !tbaa !34
  %84 = sext i32 %.val48 to i64
  %85 = icmp slt i64 %indvars.iv.next70, %84
  br i1 %85, label %.lr.ph63, label %.critedge2.preheader, !llvm.loop !44

.critedge2:                                       ; preds = %.critedge2.preheader, %.critedge2
  %indvars.iv72 = phi i64 [ %indvars.iv.next73, %.critedge2 ], [ 0, %.critedge2.preheader ]
  %86 = phi ptr [ %98, %.critedge2 ], [ %52, %.critedge2.preheader ]
  %87 = getelementptr i8, ptr %86, i64 8
  %.val52 = load ptr, ptr %87, align 8, !tbaa !37
  %88 = getelementptr inbounds nuw ptr, ptr %.val52, i64 %indvars.iv72
  %89 = load ptr, ptr %88, align 8, !tbaa !38
  %90 = tail call ptr @Nwk_ManCreateCo(ptr noundef nonnull %2) #12
  %91 = getelementptr inbounds nuw i8, ptr %89, i64 40
  store ptr %90, ptr %91, align 8, !tbaa !32
  %92 = getelementptr i8, ptr %89, i64 8
  %.val55 = load ptr, ptr %92, align 8, !tbaa !42
  %93 = ptrtoint ptr %.val55 to i64
  %94 = and i64 %93, -2
  %95 = inttoptr i64 %94 to ptr
  %96 = getelementptr inbounds nuw i8, ptr %95, i64 40
  %97 = load ptr, ptr %96, align 8, !tbaa !32
  tail call void @Nwk_ObjAddFanin(ptr noundef %90, ptr noundef %97) #12
  %indvars.iv.next73 = add nuw nsw i64 %indvars.iv72, 1
  %98 = load ptr, ptr %51, align 8, !tbaa !41
  %99 = getelementptr i8, ptr %98, i64 4
  %.val49 = load i32, ptr %99, align 4, !tbaa !34
  %100 = sext i32 %.val49 to i64
  %101 = icmp slt i64 %indvars.iv.next73, %100
  br i1 %101, label %.critedge2, label %.critedge4, !llvm.loop !45

.critedge4:                                       ; preds = %.critedge2, %.critedge2.preheader
  ret ptr %2
}